target datalayout = "e-m:e-p270:32:32-p271:32:32-p272:64:64-i64:64-i128:128-f80:128-n8:16:32:64-S128"
target triple = "x86_64-pc-linux-gnu"

%struct.AVPacket = type { ptr, i64, i64, ptr, i32, i32, i32, ptr, i32, i64, i64, ptr, ptr, %struct.AVRational }
%struct.AVRational = type { i32, i32 }
%struct.AVCodecContext = type { ptr, i32, i32, ptr, i32, i32, ptr, ptr, ptr, i64, i32, i32, ptr, i32, %struct.AVRational, %struct.AVRational, %struct.AVRational, i32, i32, i32, i32, i32, %struct.AVRational, i32, i32, i32, i32, i32, i32, i32, i32, i32, i32, i32, ptr, ptr, i32, float, float, float, float, float, float, float, float, float, i32, i32, i32, i32, i32, i32, i32, i32, i32, i32, i32, i32, ptr, ptr, ptr, i32, i32, i32, i32, i32, i32, i32, i32, i32, i32, %struct.AVChannelLayout, i32, i32, i32, i32, i32, i32, i32, i32, ptr, i32, i32, i32, float, float, i32, i32, i32, i32, i32, ptr, i64, i64, float, float, i32, i32, ptr, ptr, i32, i32, i32, i32, i32, ptr, ptr, ptr, ptr, i32, i32, [8 x i64], i32, i32, i32, i32, i32, i32, i32, ptr, ptr, i32, i32, i32, i32, i32, i32, i32, i32, i32, i32, ptr, ptr, i32, i32, ptr, ptr, ptr, ptr, i32, i32, i64, i32, i32, i64, ptr, i64, ptr, i32, ptr, i32 }
%struct.AVChannelLayout = type { i32, i32, %union.anon, ptr }
%union.anon = type { i64 }
%struct.AVCodecInternal = type { i32, i32, i32, ptr, ptr, ptr, ptr, ptr, ptr, ptr, i32, ptr, ptr, ptr, i32, i32, ptr, i32, ptr, ptr, i32, i32 }

@.str = private unnamed_addr constant [62 x i8] c"Invalid minimum required packet size %ld (max allowed is %d)\0A\00", align 1
@.str.1 = private unnamed_addr constant [30 x i8] c"Assertion %s failed at %s:%d\0A\00", align 1
@.str.2 = private unnamed_addr constant [13 x i8] c"!avpkt->data\00", align 1
@.str.3 = private unnamed_addr constant [20 x i8] c"libavcodec/encode.c\00", align 1
@.str.4 = private unnamed_addr constant [39 x i8] c"Failed to allocate packet of size %ld\0A\00", align 1

; Function Attrs: nounwind uwtable
define i32 @ff_alloc_packet(ptr noundef %0, ptr noundef %1, i64 noundef %2) #0 {
  %4 = alloca i32, align 4
  %5 = alloca ptr, align 8
  %6 = alloca ptr, align 8
  %7 = alloca i64, align 8
  store ptr %0, ptr %5, align 8, !tbaa !4
  store ptr %1, ptr %6, align 8, !tbaa !9
  store i64 %2, ptr %7, align 8, !tbaa !11
  %8 = load i64, ptr %7, align 8, !tbaa !11
  %9 = icmp slt i64 %8, 0
  br i1 %9, label %13, label %10

10:                                               ; preds = %3
  %11 = load i64, ptr %7, align 8, !tbaa !11
  %12 = icmp sgt i64 %11, 2147483583
  br i1 %12, label %13, label %16

13:                                               ; preds = %10, %3
  %14 = load ptr, ptr %5, align 8, !tbaa !4
  %15 = load i64, ptr %7, align 8, !tbaa !11
  call void (ptr, i32, ptr, ...) @av_log(ptr noundef %14, i32 noundef 16, ptr noundef @.str, i64 noundef %15, i32 noundef 2147483583)
  store i32 -22, ptr %4, align 4
  br label %53

16:                                               ; preds = %10
  br label %17

17:                                               ; preds = %16
  %18 = load ptr, ptr %6, align 8, !tbaa !9
  %19 = getelementptr inbounds nuw %struct.AVPacket, ptr %18, i32 0, i32 3
  %20 = load ptr, ptr %19, align 8, !tbaa !13
  %21 = icmp ne ptr %20, null
  br i1 %21, label %22, label %23

22:                                               ; preds = %17
  call void (ptr, i32, ptr, ...) @av_log(ptr noundef null, i32 noundef 0, ptr noundef @.str.1, ptr noundef @.str.2, ptr noundef @.str.3, i32 noundef 70)
  call void @abort() #9
  unreachable

23:                                               ; preds = %17
  br label %24

24:                                               ; preds = %23
  %25 = load ptr, ptr %5, align 8, !tbaa !4
  %26 = getelementptr inbounds nuw %struct.AVCodecContext, ptr %25, i32 0, i32 7
  %27 = load ptr, ptr %26, align 8, !tbaa !20
  %28 = getelementptr inbounds nuw %struct.AVCodecInternal, ptr %27, i32 0, i32 9
  %29 = load ptr, ptr %5, align 8, !tbaa !4
  %30 = getelementptr inbounds nuw %struct.AVCodecContext, ptr %29, i32 0, i32 7
  %31 = load ptr, ptr %30, align 8, !tbaa !20
  %32 = getelementptr inbounds nuw %struct.AVCodecInternal, ptr %31, i32 0, i32 10
  %33 = load i64, ptr %7, align 8, !tbaa !11
  call void @av_fast_padded_malloc(ptr noundef %28, ptr noundef %32, i64 noundef %33)
  %34 = load ptr, ptr %5, align 8, !tbaa !4
  %35 = getelementptr inbounds nuw %struct.AVCodecContext, ptr %34, i32 0, i32 7
  %36 = load ptr, ptr %35, align 8, !tbaa !20
  %37 = getelementptr inbounds nuw %struct.AVCodecInternal, ptr %36, i32 0, i32 9
  %38 = load ptr, ptr %37, align 8, !tbaa !34
  %39 = load ptr, ptr %6, align 8, !tbaa !9
  %40 = getelementptr inbounds nuw %struct.AVPacket, ptr %39, i32 0, i32 3
  store ptr %38, ptr %40, align 8, !tbaa !13
  %41 = load ptr, ptr %6, align 8, !tbaa !9
  %42 = getelementptr inbounds nuw %struct.AVPacket, ptr %41, i32 0, i32 3
  %43 = load ptr, ptr %42, align 8, !tbaa !13
  %44 = icmp ne ptr %43, null
  br i1 %44, label %48, label %45

45:                                               ; preds = %24
  %46 = load ptr, ptr %5, align 8, !tbaa !4
  %47 = load i64, ptr %7, align 8, !tbaa !11
  call void (ptr, i32, ptr, ...) @av_log(ptr noundef %46, i32 noundef 16, ptr noundef @.str.4, i64 noundef %47)
  store i32 -12, ptr %4, align 4
  br label %53

48:                                               ; preds = %24
  %49 = load i64, ptr %7, align 8, !tbaa !11
  %50 = trunc i64 %49 to i32
  %51 = load ptr, ptr %6, align 8, !tbaa !9
  %52 = getelementptr inbounds nuw %struct.AVPacket, ptr %51, i32 0, i32 4
  store i32 %50, ptr %52, align 8, !tbaa !40
  store i32 0, ptr %4, align 4
  br label %53

53:                                               ; preds = %48, %45, %13
  %54 = load i32, ptr %4, align 4
  ret i32 %54
}