; Function Attrs: nounwind uwtable
define range(i32 -22, 1) i32 @ff_alloc_packet(ptr noundef %0, ptr noundef captures(none) %1, i64 noundef %2) local_unnamed_addr #0 {
  %or.cond = icmp ugt i64 %2, 2147483583
  br i1 %or.cond, label %4, label %5

4:                                                ; preds = %3
  tail call void (ptr, i32, ptr, ...) @av_log(ptr noundef %0, i32 noundef 16, ptr noundef nonnull @.str, i64 noundef %2, i32 noundef 2147483583) #8
  br label %21

5:                                                ; preds = %3
  %6 = getelementptr inbounds nuw i8, ptr %1, i64 24
  %7 = load ptr, ptr %6, align 8, !tbaa !4
  %.not = icmp eq ptr %7, null
  br i1 %.not, label %9, label %8

8:                                                ; preds = %5
  tail call void (ptr, i32, ptr, ...) @av_log(ptr noundef null, i32 noundef 0, ptr noundef nonnull @.str.1, ptr noundef nonnull @.str.2, ptr noundef nonnull @.str.3, i32 noundef 70) #8
  tail call void @abort() #9
  unreachable

9:                                                ; preds = %5
  %10 = getelementptr inbounds nuw i8, ptr %0, i64 40
  %11 = load ptr, ptr %10, align 8, !tbaa !15
  %12 = getelementptr inbounds nuw i8, ptr %11, i64 64
  %13 = getelementptr inbounds nuw i8, ptr %11, i64 72
  tail call void @av_fast_padded_malloc(ptr noundef nonnull %12, ptr noundef nonnull %13, i64 noundef %2) #8
  %14 = load ptr, ptr %10, align 8, !tbaa !15
  %15 = getelementptr inbounds nuw i8, ptr %14, i64 64
  %16 = load ptr, ptr %15, align 8, !tbaa !29
  store ptr %16, ptr %6, align 8, !tbaa !4
  %.not17 = icmp eq ptr %16, null
  br i1 %.not17, label %17, label %18

17:                                               ; preds = %9
  tail call void (ptr, i32, ptr, ...) @av_log(ptr noundef nonnull %0, i32 noundef 16, ptr noundef nonnull @.str.4, i64 noundef %2) #8
  br label %21

18:                                               ; preds = %9
  %19 = trunc nuw nsw i64 %2 to i32
  %20 = getelementptr inbounds nuw i8, ptr %1, i64 32
  store i32 %19, ptr %20, align 8, !tbaa !36
  br label %21

21:                                               ; preds = %18, %17, %4
  %.0 = phi i32 [ -22, %4 ], [ 0, %18 ], [ -12, %17 ]
  ret i32 %.0
}